target datalayout = "e-m:e-p270:32:32-p271:32:32-p272:64:64-i64:64-i128:128-f80:128-n8:16:32:64-S128"
target triple = "x86_64-pc-linux-gnu"

%struct.expert_field = type { i32, i32 }
%struct._packet_info = type { ptr, ptr, i32, i32, %struct.nstime_t, %struct.nstime_t, %struct.nstime_t, i8, ptr, ptr, ptr, ptr, %struct._address, %struct._address, %struct._address, %struct._address, %struct._address, %struct._address, i32, ptr, i8, [3 x i8], %struct.anon, i32, i32, i32, i32, ptr, i8, ptr, ptr, i16, i16, i32, i32, i16, i32, i32, ptr, ptr, ptr, i8, i8, i16, i16, i16, i32, i16, i16, ptr, ptr, ptr, ptr, ptr, i32, i32 }
%struct.nstime_t = type { i64, i32 }
%struct._address = type { i32, i32, ptr, ptr }
%struct.anon = type { i8, [3 x i8] }
%struct._t38_packet_info = type { i16, i32, i32, i32, i32, i32, i8, [128 x i8], [128 x i8], double, i32 }

@hf_t30_t4_frame_num = internal global i32 0, align 4
@hf_t30_t4_data = internal global i32 0, align 4
@ei_t30_bad_length = internal global %struct.expert_field zeroinitializer, align 4
@.str.405 = private unnamed_addr constant [29 x i8] c" [MALFORMED OR SHORT PACKET]\00", align 1
@.str.413 = private unnamed_addr constant [40 x i8] c"T30 FCD length must be at least 2 bytes\00", align 1
@.str.414 = private unnamed_addr constant [16 x i8] c" - Frame num:%d\00", align 1
@.str.415 = private unnamed_addr constant [12 x i8] c"Frm num: %d\00", align 1

; Function Attrs: nounwind null_pointer_is_valid sspstrong uwtable
define internal zeroext i8 @reverse_byte(i8 noundef zeroext %0) #3 {
  %2 = alloca i8, align 1
  store i8 %0, ptr %2, align 1
  %3 = load i8, ptr %2, align 1
  %4 = zext i8 %3 to i32
  %5 = and i32 %4, 128
  %6 = ashr i32 %5, 7
  %7 = load i8, ptr %2, align 1
  %8 = zext i8 %7 to i32
  %9 = and i32 %8, 64
  %10 = ashr i32 %9, 5
  %11 = or i32 %6, %10
  %12 = load i8, ptr %2, align 1
  %13 = zext i8 %12 to i32
  %14 = and i32 %13, 32
  %15 = ashr i32 %14, 3
  %16 = or i32 %11, %15
  %17 = load i8, ptr %2, align 1
  %18 = zext i8 %17 to i32
  %19 = and i32 %18, 16
  %20 = ashr i32 %19, 1
  %21 = or i32 %16, %20
  %22 = load i8, ptr %2, align 1
  %23 = zext i8 %22 to i32
  %24 = and i32 %23, 8
  %25 = shl i32 %24, 1
  %26 = or i32 %21, %25
  %27 = load i8, ptr %2, align 1
  %28 = zext i8 %27 to i32
  %29 = and i32 %28, 4
  %30 = shl i32 %29, 3
  %31 = or i32 %26, %30
  %32 = load i8, ptr %2, align 1
  %33 = zext i8 %32 to i32
  %34 = and i32 %33, 2
  %35 = shl i32 %34, 5
  %36 = or i32 %31, %35
  %37 = load i8, ptr %2, align 1
  %38 = zext i8 %37 to i32
  %39 = and i32 %38, 1
  %40 = shl i32 %39, 7
  %41 = or i32 %36, %40
  %42 = trunc i32 %41 to i8
  ret i8 %42
}

; Function Attrs: null_pointer_is_valid sspstrong uwtable
define internal void @dissect_t30_facsimile_coded_data(ptr noundef %0, i32 noundef %1, ptr noundef %2, i32 noundef %3, ptr noundef %4, ptr noundef %5) #1 {
  %7 = alloca ptr, align 8
  %8 = alloca i32, align 4
  %9 = alloca ptr, align 8
  %10 = alloca i32, align 4
  %11 = alloca ptr, align 8
  %12 = alloca ptr, align 8
  %13 = alloca i8, align 1
  %14 = alloca i32, align 4
  store ptr %0, ptr %7, align 8
  store i32 %1, ptr %8, align 4
  store ptr %2, ptr %9, align 8
  store i32 %3, ptr %10, align 4
  store ptr %4, ptr %11, align 8
  store ptr %5, ptr %12, align 8
  call void @llvm.lifetime.start.p0(i64 1, ptr %13) #8
  %15 = load i32, ptr %10, align 4
  %16 = icmp slt i32 %15, 2
  br i1 %16, label %17, label %29

17:                                               ; preds = %6
  %18 = load ptr, ptr %11, align 8
  %19 = load ptr, ptr %9, align 8
  %20 = load ptr, ptr %7, align 8
  %21 = load i32, ptr %8, align 4
  %22 = load ptr, ptr %7, align 8
  %23 = load i32, ptr %8, align 4
  %24 = call i32 @tvb_reported_length_remaining(ptr noundef %22, i32 noundef %23)
  %25 = call ptr (ptr, ptr, ptr, ptr, i32, i32, ptr, ...) @proto_tree_add_expert_format(ptr noundef %18, ptr noundef %19, ptr noundef @ei_t30_bad_length, ptr noundef %20, i32 noundef %21, i32 noundef %24, ptr noundef @.str.413)
  %26 = load ptr, ptr %9, align 8
  %27 = getelementptr inbounds nuw %struct._packet_info, ptr %26, i32 0, i32 1
  %28 = load ptr, ptr %27, align 8
  call void @col_append_str(ptr noundef %28, i32 noundef 25, ptr noundef @.str.405)
  store i32 1, ptr %14, align 4
  br label %67

29:                                               ; preds = %6
  %30 = load ptr, ptr %7, align 8
  %31 = load i32, ptr %8, align 4
  %32 = call zeroext i8 @tvb_get_uint8(ptr noundef %30, i32 noundef %31)
  store i8 %32, ptr %13, align 1
  %33 = load ptr, ptr %11, align 8
  %34 = load i32, ptr @hf_t30_t4_frame_num, align 4
  %35 = load ptr, ptr %7, align 8
  %36 = load i32, ptr %8, align 4
  %37 = load i8, ptr %13, align 1
  %38 = call zeroext i8 @reverse_byte(i8 noundef zeroext %37)
  %39 = zext i8 %38 to i32
  %40 = call ptr @proto_tree_add_uint(ptr noundef %33, i32 noundef %34, ptr noundef %35, i32 noundef %36, i32 noundef 1, i32 noundef %39)
  %41 = load i32, ptr %8, align 4
  %42 = add i32 %41, 1
  store i32 %42, ptr %8, align 4
  %43 = load ptr, ptr %9, align 8
  %44 = getelementptr inbounds nuw %struct._packet_info, ptr %43, i32 0, i32 1
  %45 = load ptr, ptr %44, align 8
  %46 = load i8, ptr %13, align 1
  %47 = call zeroext i8 @reverse_byte(i8 noundef zeroext %46)
  %48 = zext i8 %47 to i32
  call void (ptr, i32, ptr, ...) @col_append_fstr(ptr noundef %45, i32 noundef 25, ptr noundef @.str.414, i32 noundef %48)
  %49 = load ptr, ptr %12, align 8
  %50 = icmp ne ptr %49, null
  br i1 %50, label %51, label %59

51:                                               ; preds = %29
  %52 = load ptr, ptr %12, align 8
  %53 = getelementptr inbounds nuw %struct._t38_packet_info, ptr %52, i32 0, i32 7
  %54 = getelementptr inbounds [128 x i8], ptr %53, i64 0, i64 0
  %55 = load i8, ptr %13, align 1
  %56 = call zeroext i8 @reverse_byte(i8 noundef zeroext %55)
  %57 = zext i8 %56 to i32
  %58 = call i32 (ptr, i64, i32, i64, ptr, ...) @__snprintf_chk(ptr noundef %54, i64 noundef 128, i32 noundef 2, i64 noundef 128, ptr noundef @.str.415, i32 noundef %57)
  br label %59

59:                                               ; preds = %51, %29
  %60 = load ptr, ptr %11, align 8
  %61 = load i32, ptr @hf_t30_t4_data, align 4
  %62 = load ptr, ptr %7, align 8
  %63 = load i32, ptr %8, align 4
  %64 = load i32, ptr %10, align 4
  %65 = sub i32 %64, 1
  %66 = call ptr @proto_tree_add_item(ptr noundef %60, i32 noundef %61, ptr noundef %62, i32 noundef %63, i32 noundef %65, i32 noundef 0)
  store i32 0, ptr %14, align 4
  br label %67

67:                                               ; preds = %59, %17
  call void @llvm.lifetime.end.p0(i64 1, ptr %13) #8
  %68 = load i32, ptr %14, align 4
  switch i32 %68, label %70 [
    i32 0, label %69
    i32 1, label %69
  ]

69:                                               ; preds = %67, %67
  ret void

70:                                               ; preds = %67
  unreachable
}