; Function Attrs: null_pointer_is_valid sspstrong uwtable
define internal fastcc void @dissect_t30_facsimile_coded_data(ptr noundef %0, ptr noundef %1, i32 noundef %2, ptr noundef %3, ptr noundef %4) unnamed_addr #1 {
  %6 = icmp slt i32 %2, 2
  br i1 %6, label %7, label %12

7:                                                ; preds = %5
  %8 = tail call i32 @tvb_reported_length_remaining(ptr noundef %0, i32 noundef 3)
  %9 = tail call ptr (ptr, ptr, ptr, ptr, i32, i32, ptr, ...) @proto_tree_add_expert_format(ptr noundef %3, ptr noundef %1, ptr noundef nonnull @ei_t30_bad_length, ptr noundef %0, i32 noundef 3, i32 noundef %8, ptr noundef nonnull @.str.413)
  %10 = getelementptr inbounds nuw i8, ptr %1, i64 8
  %11 = load ptr, ptr %10, align 8
  tail call void @col_append_str(ptr noundef %11, i32 noundef 25, ptr noundef nonnull @.str.405)
  br label %26

12:                                               ; preds = %5
  %13 = tail call zeroext i8 @tvb_get_uint8(ptr noundef %0, i32 noundef 3)
  %14 = load i32, ptr @hf_t30_t4_frame_num, align 4
  %rev.i = tail call noundef i8 @llvm.bitreverse.i8(i8 %13)
  %15 = zext i8 %rev.i to i32
  %16 = tail call ptr @proto_tree_add_uint(ptr noundef %3, i32 noundef %14, ptr noundef %0, i32 noundef 3, i32 noundef 1, i32 noundef %15)
  %17 = getelementptr inbounds nuw i8, ptr %1, i64 8
  %18 = load ptr, ptr %17, align 8
  tail call void (ptr, i32, ptr, ...) @col_append_fstr(ptr noundef %18, i32 noundef 25, ptr noundef nonnull @.str.414, i32 noundef %15)
  %.not = icmp eq ptr %4, null
  br i1 %.not, label %22, label %19

19:                                               ; preds = %12
  %20 = getelementptr inbounds nuw i8, ptr %4, i64 25
  %21 = tail call i32 (ptr, i64, i32, i64, ptr, ...) @__snprintf_chk(ptr noundef nonnull %20, i64 noundef 128, i32 noundef 2, i64 noundef 128, ptr noundef nonnull @.str.415, i32 noundef %15)
  br label %22

22:                                               ; preds = %19, %12
  %23 = load i32, ptr @hf_t30_t4_data, align 4
  %24 = add nsw i32 %2, -1
  %25 = tail call ptr @proto_tree_add_item(ptr noundef %3, i32 noundef %23, ptr noundef %0, i32 noundef 4, i32 noundef %24, i32 noundef 0)
  br label %26

26:                                               ; preds = %22, %7
  ret void
}